; Function Attrs: mustprogress nounwind uwtable
define hidden noundef i32 @_ZNK4ncnn7Dropout15forward_inplaceERNS_3MatERKNS_6OptionE(ptr noundef nonnull align 8 dereferenceable(212) %0, ptr noundef nonnull align 8 dereferenceable(72) %1, ptr noundef nonnull readonly align 8 captures(none) dereferenceable(64) %2) unnamed_addr #4 align 2 {
  %4 = alloca i32, align 4
  %5 = alloca i32, align 4
  %6 = tail call i32 @__kmpc_global_thread_num(ptr nonnull @2)
  %7 = getelementptr inbounds nuw i8, ptr %0, i64 208
  %8 = load float, ptr %7, align 8, !tbaa !4
  %9 = fcmp fast oeq float %8, 1.000000e+00
  br i1 %9, label %20, label %10

10:                                               ; preds = %3
  %11 = getelementptr inbounds nuw i8, ptr %1, i64 44
  %12 = load i32, ptr %11, align 4, !tbaa !27
  %13 = getelementptr inbounds nuw i8, ptr %1, i64 48
  %14 = load i32, ptr %13, align 8, !tbaa !30
  call void @llvm.lifetime.start.p0(i64 4, ptr nonnull %4) #7
  %15 = getelementptr inbounds nuw i8, ptr %1, i64 56
  %16 = load i32, ptr %15, align 8, !tbaa !31
  store i32 %16, ptr %4, align 4, !tbaa !32
  call void @llvm.lifetime.start.p0(i64 4, ptr nonnull %5) #7
  %17 = mul nsw i32 %14, %12
  store i32 %17, ptr %5, align 4, !tbaa !32
  %18 = getelementptr inbounds nuw i8, ptr %2, i64 4
  %19 = load i32, ptr %18, align 4, !tbaa !33
  tail call void @__kmpc_push_num_threads(ptr nonnull @2, i32 %6, i32 %19)
  call void (ptr, i32, ptr, ...) @__kmpc_fork_call(ptr nonnull @2, i32 4, ptr nonnull @_ZNK4ncnn7Dropout15forward_inplaceERNS_3MatERKNS_6OptionE.omp_outlined, ptr nonnull %4, ptr nonnull %1, ptr nonnull %5, ptr nonnull %0)
  call void @llvm.lifetime.end.p0(i64 4, ptr nonnull %5) #7
  call void @llvm.lifetime.end.p0(i64 4, ptr nonnull %4) #7
  br label %20

20:                                               ; preds = %3, %10
  ret i32 0
}